; ModuleID = '34/531.c'
source_filename = "34/531.c"
target datalayout = "e-m:e-p270:32:32-p271:32:32-p272:64:64-i64:64-f80:128-n8:16:32:64-S128"
target triple = "x86_64-pc-linux-gnu"

@.str = private unnamed_addr constant [3 x i8] c"%d\00", align 1
@.str.1 = private unnamed_addr constant [4 x i8] c"End\00", align 1
@.str.2 = private unnamed_addr constant [9 x i8] c"*3+1=%d\0A\00", align 1
@.str.3 = private unnamed_addr constant [7 x i8] c"/2=%d\0A\00", align 1

; Function Attrs: noinline nounwind uwtable
define dso_local i32 @main() #0 {
  %1 = alloca i32, align 4
  %2 = alloca i32, align 4
  store i32 0, i32* %1, align 4
  %3 = call i32 (i8*, ...) @__isoc99_scanf(i8* getelementptr inbounds ([3 x i8], [3 x i8]* @.str, i64 0, i64 0), i32* %2)
  %4 = load i32, i32* %2, align 4
  %5 = icmp eq i32 %4, 1
  br i1 %5, label %6, label %8

6:                                                ; preds = %0
  %7 = call i32 (i8*, ...) @printf(i8* getelementptr inbounds ([4 x i8], [4 x i8]* @.str.1, i64 0, i64 0))
  br label %42

8:                                                ; preds = %0
  br label %9

9:                                                ; preds = %35, %8
  %10 = load i32, i32* %2, align 4
  %11 = icmp ne i32 %10, 1
  br i1 %11, label %12, label %36

12:                                               ; preds = %9
  %13 = load i32, i32* %2, align 4
  %14 = srem i32 %13, 2
  %15 = icmp ne i32 %14, 0
  br i1 %15, label %16, label %24

16:                                               ; preds = %12
  %17 = load i32, i32* %2, align 4
  %18 = call i32 (i8*, ...) @printf(i8* getelementptr inbounds ([3 x i8], [3 x i8]* @.str, i64 0, i64 0), i32 %17)
  %19 = load i32, i32* %2, align 4
  %20 = mul nsw i32 %19, 3
  %21 = add nsw i32 %20, 1
  store i32 %21, i32* %2, align 4
  %22 = load i32, i32* %2, align 4
  %23 = call i32 (i8*, ...) @printf(i8* getelementptr inbounds ([9 x i8], [9 x i8]* @.str.2, i64 0, i64 0), i32 %22)
  br label %24

24:                                               ; preds = %16, %12
  %25 = load i32, i32* %2, align 4
  %26 = srem i32 %25, 2
  %27 = icmp eq i32 %26, 0
  br i1 %27, label %28, label %35

28:                                               ; preds = %24
  %29 = load i32, i32* %2, align 4
  %30 = call i32 (i8*, ...) @printf(i8* getelementptr inbounds ([3 x i8], [3 x i8]* @.str, i64 0, i64 0), i32 %29)
  %31 = load i32, i32* %2, align 4
  %32 = sdiv i32 %31, 2
  store i32 %32, i32* %2, align 4
  %33 = load i32, i32* %2, align 4
  %34 = call i32 (i8*, ...) @printf(i8* getelementptr inbounds ([7 x i8], [7 x i8]* @.str.3, i64 0, i64 0), i32 %33)
  br label %35

35:                                               ; preds = %28, %24
  br label %9

36:                                               ; preds = %9
  %37 = load i32, i32* %2, align 4
  %38 = icmp eq i32 %37, 1
  br i1 %38, label %39, label %41

39:                                               ; preds = %36
  %40 = call i32 (i8*, ...) @printf(i8* getelementptr inbounds ([4 x i8], [4 x i8]* @.str.1, i64 0, i64 0))
  br label %41

41:                                               ; preds = %39, %36
  br label %42

42:                                               ; preds = %41, %6
  ret i32 0
}

declare dso_local i32 @__isoc99_scanf(i8*, ...) #1

declare dso_local i32 @printf(i8*, ...) #1


!llvm.module.flags = !{!0}
!llvm.ident = !{!1}

!0 = !{i32 1, !"wchar_size", i32 4}
!1 = !{!"clang version 10.0.0-4ubuntu1 "}
